target datalayout = "e-m:e-p270:32:32-p271:32:32-p272:64:64-i64:64-i128:128-f80:128-n8:16:32:64-S128"
target triple = "x86_64-pc-linux-gnu"

%struct.Cec_ManPat_t_ = type { ptr, ptr, ptr, i32, i32, i32, i32, i32, i32, i32, i32, i32, i64, i64, i64, i64, i64, i64, i64 }
%struct.Vec_Str_t_ = type { i32, i32, ptr }

@.str.11 = private unnamed_addr constant [68 x i8] c"Latest: P = %8d.  L = %10d.  Lm = %10d. Ave = %6.1f. MEM =%6.2f MB\0A\00", align 1
@.str.12 = private unnamed_addr constant [68 x i8] c"Total:  P = %8d.  L = %10d.  Lm = %10d. Ave = %6.1f. MEM =%6.2f MB\0A\00", align 1
@.str.13 = private unnamed_addr constant [10 x i8] c"Finding  \00", align 1
@.str.14 = private unnamed_addr constant [10 x i8] c"Shrinking\00", align 1
@.str.15 = private unnamed_addr constant [10 x i8] c"Verifying\00", align 1
@.str.16 = private unnamed_addr constant [10 x i8] c"Sorting  \00", align 1
@.str.17 = private unnamed_addr constant [10 x i8] c"Packing  \00", align 1
@.str.18 = private unnamed_addr constant [10 x i8] c"TOTAL    \00", align 1
@.str.21 = private unnamed_addr constant [5 x i8] c"%s =\00", align 1
@.str.22 = private unnamed_addr constant [22 x i8] c"%9.2f sec (%6.2f %%)\0A\00", align 1
@.str.23 = private unnamed_addr constant [11 x i8] c"%9.2f sec\0A\00", align 1

; Function Attrs: inlinehint nounwind uwtable
define internal void @Abc_PrintTime(i32 noundef %0, ptr noundef %1, i64 noundef %2) #5 {
  %4 = alloca i32, align 4
  %5 = alloca ptr, align 8
  %6 = alloca i64, align 8
  store i32 %0, ptr %4, align 4, !tbaa !43
  store ptr %1, ptr %5, align 8, !tbaa !68
  store i64 %2, ptr %6, align 8, !tbaa !73
  %7 = load ptr, ptr %5, align 8, !tbaa !68
  call void (i32, ptr, ...) @Abc_Print(i32 noundef 1, ptr noundef @.str.21, ptr noundef %7)
  %8 = load i64, ptr %6, align 8, !tbaa !73
  %9 = sitofp i64 %8 to double
  %10 = fmul double 1.000000e+00, %9
  %11 = fdiv double %10, 1.000000e+06
  call void (i32, ptr, ...) @Abc_Print(i32 noundef 1, ptr noundef @.str.23, double noundef %11)
  ret void
}

; Function Attrs: inlinehint nounwind uwtable
define internal void @Abc_PrintTimeP(i32 noundef %0, ptr noundef %1, i64 noundef %2, i64 noundef %3) #5 {
  %5 = alloca i32, align 4
  %6 = alloca ptr, align 8
  %7 = alloca i64, align 8
  %8 = alloca i64, align 8
  store i32 %0, ptr %5, align 4, !tbaa !43
  store ptr %1, ptr %6, align 8, !tbaa !68
  store i64 %2, ptr %7, align 8, !tbaa !73
  store i64 %3, ptr %8, align 8, !tbaa !73
  %9 = load ptr, ptr %6, align 8, !tbaa !68
  call void (i32, ptr, ...) @Abc_Print(i32 noundef 1, ptr noundef @.str.21, ptr noundef %9)
  %10 = load i64, ptr %7, align 8, !tbaa !73
  %11 = sitofp i64 %10 to double
  %12 = fmul double 1.000000e+00, %11
  %13 = fdiv double %12, 1.000000e+06
  %14 = load i64, ptr %8, align 8, !tbaa !73
  %15 = sitofp i64 %14 to double
  %16 = fcmp une double %15, 0.000000e+00
  br i1 %16, label %17, label %24

17:                                               ; preds = %4
  %18 = load i64, ptr %7, align 8, !tbaa !73
  %19 = sitofp i64 %18 to double
  %20 = fmul double 1.000000e+02, %19
  %21 = load i64, ptr %8, align 8, !tbaa !73
  %22 = sitofp i64 %21 to double
  %23 = fdiv double %20, %22
  br label %25

24:                                               ; preds = %4
  br label %25

25:                                               ; preds = %24, %17
  %26 = phi double [ %23, %17 ], [ 0.000000e+00, %24 ]
  call void (i32, ptr, ...) @Abc_Print(i32 noundef 1, ptr noundef @.str.22, double noundef %13, double noundef %26)
  ret void
}

; Function Attrs: inlinehint nounwind uwtable
define internal i32 @Vec_StrSize(ptr noundef %0) #5 {
  %2 = alloca ptr, align 8
  store ptr %0, ptr %2, align 8, !tbaa !81
  %3 = load ptr, ptr %2, align 8, !tbaa !81
  %4 = getelementptr inbounds nuw %struct.Vec_Str_t_, ptr %3, i32 0, i32 1
  %5 = load i32, ptr %4, align 4, !tbaa !82
  ret i32 %5
}

; Function Attrs: nounwind uwtable
define void @Cec_ManPatPrintStats(ptr noundef %0) #0 {
  %2 = alloca ptr, align 8
  store ptr %0, ptr %2, align 8, !tbaa !75
  %3 = load ptr, ptr %2, align 8, !tbaa !75
  %4 = getelementptr inbounds nuw %struct.Cec_ManPat_t_, ptr %3, i32 0, i32 4
  %5 = load i32, ptr %4, align 4, !tbaa !86
  %6 = load ptr, ptr %2, align 8, !tbaa !75
  %7 = getelementptr inbounds nuw %struct.Cec_ManPat_t_, ptr %6, i32 0, i32 6
  %8 = load i32, ptr %7, align 4, !tbaa !87
  %9 = load ptr, ptr %2, align 8, !tbaa !75
  %10 = getelementptr inbounds nuw %struct.Cec_ManPat_t_, ptr %9, i32 0, i32 8
  %11 = load i32, ptr %10, align 4, !tbaa !88
  %12 = load ptr, ptr %2, align 8, !tbaa !75
  %13 = getelementptr inbounds nuw %struct.Cec_ManPat_t_, ptr %12, i32 0, i32 8
  %14 = load i32, ptr %13, align 4, !tbaa !88
  %15 = sitofp i32 %14 to double
  %16 = fmul double 1.000000e+00, %15
  %17 = load ptr, ptr %2, align 8, !tbaa !75
  %18 = getelementptr inbounds nuw %struct.Cec_ManPat_t_, ptr %17, i32 0, i32 4
  %19 = load i32, ptr %18, align 4, !tbaa !86
  %20 = sitofp i32 %19 to double
  %21 = fdiv double %16, %20
  %22 = load ptr, ptr %2, align 8, !tbaa !75
  %23 = getelementptr inbounds nuw %struct.Cec_ManPat_t_, ptr %22, i32 0, i32 2
  %24 = load ptr, ptr %23, align 8, !tbaa !77
  %25 = call i32 @Vec_StrSize(ptr noundef %24)
  %26 = load ptr, ptr %2, align 8, !tbaa !75
  %27 = getelementptr inbounds nuw %struct.Cec_ManPat_t_, ptr %26, i32 0, i32 3
  %28 = load i32, ptr %27, align 8, !tbaa !89
  %29 = sub nsw i32 %25, %28
  %30 = sitofp i32 %29 to double
  %31 = fmul double 1.000000e+00, %30
  %32 = fdiv double %31, 0x4130000000000000
  call void (i32, ptr, ...) @Abc_Print(i32 noundef 1, ptr noundef @.str.11, i32 noundef %5, i32 noundef %8, i32 noundef %11, double noundef %21, double noundef %32)
  %33 = load ptr, ptr %2, align 8, !tbaa !75
  %34 = getelementptr inbounds nuw %struct.Cec_ManPat_t_, ptr %33, i32 0, i32 5
  %35 = load i32, ptr %34, align 8, !tbaa !90
  %36 = load ptr, ptr %2, align 8, !tbaa !75
  %37 = getelementptr inbounds nuw %struct.Cec_ManPat_t_, ptr %36, i32 0, i32 7
  %38 = load i32, ptr %37, align 8, !tbaa !91
  %39 = load ptr, ptr %2, align 8, !tbaa !75
  %40 = getelementptr inbounds nuw %struct.Cec_ManPat_t_, ptr %39, i32 0, i32 9
  %41 = load i32, ptr %40, align 8, !tbaa !92
  %42 = load ptr, ptr %2, align 8, !tbaa !75
  %43 = getelementptr inbounds nuw %struct.Cec_ManPat_t_, ptr %42, i32 0, i32 9
  %44 = load i32, ptr %43, align 8, !tbaa !92
  %45 = sitofp i32 %44 to double
  %46 = fmul double 1.000000e+00, %45
  %47 = load ptr, ptr %2, align 8, !tbaa !75
  %48 = getelementptr inbounds nuw %struct.Cec_ManPat_t_, ptr %47, i32 0, i32 5
  %49 = load i32, ptr %48, align 8, !tbaa !90
  %50 = sitofp i32 %49 to double
  %51 = fdiv double %46, %50
  %52 = load ptr, ptr %2, align 8, !tbaa !75
  %53 = getelementptr inbounds nuw %struct.Cec_ManPat_t_, ptr %52, i32 0, i32 2
  %54 = load ptr, ptr %53, align 8, !tbaa !77
  %55 = call i32 @Vec_StrSize(ptr noundef %54)
  %56 = sitofp i32 %55 to double
  %57 = fmul double 1.000000e+00, %56
  %58 = fdiv double %57, 0x4130000000000000
  call void (i32, ptr, ...) @Abc_Print(i32 noundef 1, ptr noundef @.str.12, i32 noundef %35, i32 noundef %38, i32 noundef %41, double noundef %51, double noundef %58)
  %59 = load ptr, ptr %2, align 8, !tbaa !75
  %60 = getelementptr inbounds nuw %struct.Cec_ManPat_t_, ptr %59, i32 0, i32 12
  %61 = load i64, ptr %60, align 8, !tbaa !93
  %62 = load ptr, ptr %2, align 8, !tbaa !75
  %63 = getelementptr inbounds nuw %struct.Cec_ManPat_t_, ptr %62, i32 0, i32 17
  %64 = load i64, ptr %63, align 8, !tbaa !94
  call void @Abc_PrintTimeP(i32 noundef 1, ptr noundef @.str.13, i64 noundef %61, i64 noundef %64)
  %65 = load ptr, ptr %2, align 8, !tbaa !75
  %66 = getelementptr inbounds nuw %struct.Cec_ManPat_t_, ptr %65, i32 0, i32 13
  %67 = load i64, ptr %66, align 8, !tbaa !95
  %68 = load ptr, ptr %2, align 8, !tbaa !75
  %69 = getelementptr inbounds nuw %struct.Cec_ManPat_t_, ptr %68, i32 0, i32 17
  %70 = load i64, ptr %69, align 8, !tbaa !94
  call void @Abc_PrintTimeP(i32 noundef 1, ptr noundef @.str.14, i64 noundef %67, i64 noundef %70)
  %71 = load ptr, ptr %2, align 8, !tbaa !75
  %72 = getelementptr inbounds nuw %struct.Cec_ManPat_t_, ptr %71, i32 0, i32 14
  %73 = load i64, ptr %72, align 8, !tbaa !96
  %74 = load ptr, ptr %2, align 8, !tbaa !75
  %75 = getelementptr inbounds nuw %struct.Cec_ManPat_t_, ptr %74, i32 0, i32 17
  %76 = load i64, ptr %75, align 8, !tbaa !94
  call void @Abc_PrintTimeP(i32 noundef 1, ptr noundef @.str.15, i64 noundef %73, i64 noundef %76)
  %77 = load ptr, ptr %2, align 8, !tbaa !75
  %78 = getelementptr inbounds nuw %struct.Cec_ManPat_t_, ptr %77, i32 0, i32 15
  %79 = load i64, ptr %78, align 8, !tbaa !97
  %80 = load ptr, ptr %2, align 8, !tbaa !75
  %81 = getelementptr inbounds nuw %struct.Cec_ManPat_t_, ptr %80, i32 0, i32 17
  %82 = load i64, ptr %81, align 8, !tbaa !94
  call void @Abc_PrintTimeP(i32 noundef 1, ptr noundef @.str.16, i64 noundef %79, i64 noundef %82)
  %83 = load ptr, ptr %2, align 8, !tbaa !75
  %84 = getelementptr inbounds nuw %struct.Cec_ManPat_t_, ptr %83, i32 0, i32 16
  %85 = load i64, ptr %84, align 8, !tbaa !98
  %86 = load ptr, ptr %2, align 8, !tbaa !75
  %87 = getelementptr inbounds nuw %struct.Cec_ManPat_t_, ptr %86, i32 0, i32 17
  %88 = load i64, ptr %87, align 8, !tbaa !94
  call void @Abc_PrintTimeP(i32 noundef 1, ptr noundef @.str.17, i64 noundef %85, i64 noundef %88)
  %89 = load ptr, ptr %2, align 8, !tbaa !75
  %90 = getelementptr inbounds nuw %struct.Cec_ManPat_t_, ptr %89, i32 0, i32 17
  %91 = load i64, ptr %90, align 8, !tbaa !94
  call void @Abc_PrintTime(i32 noundef 1, ptr noundef @.str.18, i64 noundef %91)
  ret void
}