; Function Attrs: nounwind uwtable
define void @Cec_ManPatPrintStats(ptr noundef readonly captures(none) %0) local_unnamed_addr #5 {
  %2 = getelementptr inbounds nuw i8, ptr %0, i64 28
  %3 = load i32, ptr %2, align 4, !tbaa !78
  %4 = getelementptr inbounds nuw i8, ptr %0, i64 36
  %5 = load i32, ptr %4, align 4, !tbaa !79
  %6 = getelementptr inbounds nuw i8, ptr %0, i64 44
  %7 = load i32, ptr %6, align 4, !tbaa !80
  %8 = sitofp i32 %7 to double
  %9 = sitofp i32 %3 to double
  %10 = fdiv double %8, %9
  %11 = getelementptr inbounds nuw i8, ptr %0, i64 16
  %12 = load ptr, ptr %11, align 8, !tbaa !74
  %13 = getelementptr i8, ptr %12, i64 4
  %.val = load i32, ptr %13, align 4, !tbaa !70
  %14 = getelementptr inbounds nuw i8, ptr %0, i64 24
  %15 = load i32, ptr %14, align 8, !tbaa !81
  %16 = sub nsw i32 %.val, %15
  %17 = sitofp i32 %16 to double
  %18 = fmul double %17, 0x3EB0000000000000
  tail call void (i32, ptr, ...) @Abc_Print(i32 poison, ptr noundef nonnull @.str.11, i32 noundef %3, i32 noundef %5, i32 noundef %7, double noundef %10, double noundef %18)
  %19 = getelementptr inbounds nuw i8, ptr %0, i64 32
  %20 = load i32, ptr %19, align 8, !tbaa !82
  %21 = getelementptr inbounds nuw i8, ptr %0, i64 40
  %22 = load i32, ptr %21, align 8, !tbaa !83
  %23 = getelementptr inbounds nuw i8, ptr %0, i64 48
  %24 = load i32, ptr %23, align 8, !tbaa !84
  %25 = sitofp i32 %24 to double
  %26 = sitofp i32 %20 to double
  %27 = fdiv double %25, %26
  %28 = load ptr, ptr %11, align 8, !tbaa !74
  %29 = getelementptr i8, ptr %28, i64 4
  %.val24 = load i32, ptr %29, align 4, !tbaa !70
  %30 = sitofp i32 %.val24 to double
  %31 = fmul double %30, 0x3EB0000000000000
  tail call void (i32, ptr, ...) @Abc_Print(i32 poison, ptr noundef nonnull @.str.12, i32 noundef %20, i32 noundef %22, i32 noundef %24, double noundef %27, double noundef %31)
  %32 = getelementptr inbounds nuw i8, ptr %0, i64 64
  %33 = load i64, ptr %32, align 8, !tbaa !85
  %34 = getelementptr inbounds nuw i8, ptr %0, i64 104
  %35 = load i64, ptr %34, align 8, !tbaa !86
  tail call void (i32, ptr, ...) @Abc_Print(i32 poison, ptr noundef nonnull @.str.21, ptr noundef nonnull @.str.13)
  %36 = sitofp i64 %33 to double
  %.not.i = icmp eq i64 %35, 0
  %37 = sitofp i64 %35 to double
  %38 = fmul double %36, 1.000000e+02
  %39 = fdiv double %38, %37
  %40 = select i1 %.not.i, double 0.000000e+00, double %39
  %41 = fdiv double %36, 1.000000e+06
  tail call void (i32, ptr, ...) @Abc_Print(i32 poison, ptr noundef nonnull @.str.22, double noundef %41, double noundef %40)
  %42 = getelementptr inbounds nuw i8, ptr %0, i64 72
  %43 = load i64, ptr %42, align 8, !tbaa !87
  %44 = load i64, ptr %34, align 8, !tbaa !86
  tail call void (i32, ptr, ...) @Abc_Print(i32 poison, ptr noundef nonnull @.str.21, ptr noundef nonnull @.str.14)
  %45 = sitofp i64 %43 to double
  %.not.i25 = icmp eq i64 %44, 0
  %46 = sitofp i64 %44 to double
  %47 = fmul double %45, 1.000000e+02
  %48 = fdiv double %47, %46
  %49 = select i1 %.not.i25, double 0.000000e+00, double %48
  %50 = fdiv double %45, 1.000000e+06
  tail call void (i32, ptr, ...) @Abc_Print(i32 poison, ptr noundef nonnull @.str.22, double noundef %50, double noundef %49)
  %51 = getelementptr inbounds nuw i8, ptr %0, i64 80
  %52 = load i64, ptr %51, align 8, !tbaa !88
  %53 = load i64, ptr %34, align 8, !tbaa !86
  tail call void (i32, ptr, ...) @Abc_Print(i32 poison, ptr noundef nonnull @.str.21, ptr noundef nonnull @.str.15)
  %54 = sitofp i64 %52 to double
  %.not.i26 = icmp eq i64 %53, 0
  %55 = sitofp i64 %53 to double
  %56 = fmul double %54, 1.000000e+02
  %57 = fdiv double %56, %55
  %58 = select i1 %.not.i26, double 0.000000e+00, double %57
  %59 = fdiv double %54, 1.000000e+06
  tail call void (i32, ptr, ...) @Abc_Print(i32 poison, ptr noundef nonnull @.str.22, double noundef %59, double noundef %58)
  %60 = getelementptr inbounds nuw i8, ptr %0, i64 88
  %61 = load i64, ptr %60, align 8, !tbaa !89
  %62 = load i64, ptr %34, align 8, !tbaa !86
  tail call void (i32, ptr, ...) @Abc_Print(i32 poison, ptr noundef nonnull @.str.21, ptr noundef nonnull @.str.16)
  %63 = sitofp i64 %61 to double
  %.not.i27 = icmp eq i64 %62, 0
  %64 = sitofp i64 %62 to double
  %65 = fmul double %63, 1.000000e+02
  %66 = fdiv double %65, %64
  %67 = select i1 %.not.i27, double 0.000000e+00, double %66
  %68 = fdiv double %63, 1.000000e+06
  tail call void (i32, ptr, ...) @Abc_Print(i32 poison, ptr noundef nonnull @.str.22, double noundef %68, double noundef %67)
  %69 = getelementptr inbounds nuw i8, ptr %0, i64 96
  %70 = load i64, ptr %69, align 8, !tbaa !90
  %71 = load i64, ptr %34, align 8, !tbaa !86
  tail call void (i32, ptr, ...) @Abc_Print(i32 poison, ptr noundef nonnull @.str.21, ptr noundef nonnull @.str.17)
  %72 = sitofp i64 %70 to double
  %.not.i28 = icmp eq i64 %71, 0
  %73 = sitofp i64 %71 to double
  %74 = fmul double %72, 1.000000e+02
  %75 = fdiv double %74, %73
  %76 = select i1 %.not.i28, double 0.000000e+00, double %75
  %77 = fdiv double %72, 1.000000e+06
  tail call void (i32, ptr, ...) @Abc_Print(i32 poison, ptr noundef nonnull @.str.22, double noundef %77, double noundef %76)
  %78 = load i64, ptr %34, align 8, !tbaa !86
  tail call void (i32, ptr, ...) @Abc_Print(i32 poison, ptr noundef nonnull @.str.21, ptr noundef nonnull @.str.18)
  %79 = sitofp i64 %78 to double
  %80 = fdiv double %79, 1.000000e+06
  tail call void (i32, ptr, ...) @Abc_Print(i32 poison, ptr noundef nonnull @.str.23, double noundef %80)
  ret void
}